#include <math.h>
#include <stdio.h>
#include <stdlib.h>
#include <string.h>

main()
{
   int n,i,j,m=0;
   int b[100];
   scanf("%d\n",&n);
   char a[100][100];
   for(i=0;i<n;i++)
   {
      gets(a[i]);
      b[i]=strlen(a[i]);
   }
   for(i=0;i<n;i++)
   {
       for(j=0;a[i][j]!='\0';j++)
	    	if((a[i][j]>=48&&a[i][j]<=57)||(a[i][j]>=65&&a[i][j]<=90)||(a[i][j]>=97&&a[i][j]<=122)||(a[i][j]=='_'))
				m++;
	   if((m==b[i])&&((a[i][0]>=65&&a[i][0]<=90)||(a[i][0]>=97&&a[i][0]<=122)||(a[i][0]=='_')))
            printf("1\n");
       else
            printf("0\n");
	   m=0;
   }
}