; ModuleID = '58/53.c'
source_filename = "58/53.c"
target datalayout = "e-m:e-p270:32:32-p271:32:32-p272:64:64-i64:64-f80:128-n8:16:32:64-S128"
target triple = "x86_64-pc-linux-gnu"

@.str = private unnamed_addr constant [4 x i8] c"%d\0A\00", align 1
@.str.1 = private unnamed_addr constant [3 x i8] c"1\0A\00", align 1
@.str.2 = private unnamed_addr constant [3 x i8] c"0\0A\00", align 1

; Function Attrs: noinline nounwind uwtable
define dso_local i32 @main() #0 {
  %1 = alloca i32, align 4
  %2 = alloca i32, align 4
  %3 = alloca i32, align 4
  %4 = alloca i32, align 4
  %5 = alloca i32, align 4
  %6 = alloca [100 x i32], align 16
  %7 = alloca [100 x [100 x i8]], align 16
  store i32 0, i32* %1, align 4
  store i32 0, i32* %5, align 4
  %8 = call i32 (i8*, ...) @__isoc99_scanf(i8* getelementptr inbounds ([4 x i8], [4 x i8]* @.str, i64 0, i64 0), i32* %2)
  store i32 0, i32* %3, align 4
  br label %9

9:                                                ; preds = %28, %0
  %10 = load i32, i32* %3, align 4
  %11 = load i32, i32* %2, align 4
  %12 = icmp slt i32 %10, %11
  br i1 %12, label %13, label %31

13:                                               ; preds = %9
  %14 = load i32, i32* %3, align 4
  %15 = sext i32 %14 to i64
  %16 = getelementptr inbounds [100 x [100 x i8]], [100 x [100 x i8]]* %7, i64 0, i64 %15
  %17 = getelementptr inbounds [100 x i8], [100 x i8]* %16, i64 0, i64 0
  %18 = call i32 (i8*, ...) bitcast (i32 (...)* @gets to i32 (i8*, ...)*)(i8* %17)
  %19 = load i32, i32* %3, align 4
  %20 = sext i32 %19 to i64
  %21 = getelementptr inbounds [100 x [100 x i8]], [100 x [100 x i8]]* %7, i64 0, i64 %20
  %22 = getelementptr inbounds [100 x i8], [100 x i8]* %21, i64 0, i64 0
  %23 = call i64 @strlen(i8* %22) #3
  %24 = trunc i64 %23 to i32
  %25 = load i32, i32* %3, align 4
  %26 = sext i32 %25 to i64
  %27 = getelementptr inbounds [100 x i32], [100 x i32]* %6, i64 0, i64 %26
  store i32 %24, i32* %27, align 4
  br label %28

28:                                               ; preds = %13
  %29 = load i32, i32* %3, align 4
  %30 = add nsw i32 %29, 1
  store i32 %30, i32* %3, align 4
  br label %9

31:                                               ; preds = %9
  store i32 0, i32* %3, align 4
  br label %32

32:                                               ; preds = %176, %31
  %33 = load i32, i32* %3, align 4
  %34 = load i32, i32* %2, align 4
  %35 = icmp slt i32 %33, %34
  br i1 %35, label %36, label %179

36:                                               ; preds = %32
  store i32 0, i32* %4, align 4
  br label %37

37:                                               ; preds = %121, %36
  %38 = load i32, i32* %3, align 4
  %39 = sext i32 %38 to i64
  %40 = getelementptr inbounds [100 x [100 x i8]], [100 x [100 x i8]]* %7, i64 0, i64 %39
  %41 = load i32, i32* %4, align 4
  %42 = sext i32 %41 to i64
  %43 = getelementptr inbounds [100 x i8], [100 x i8]* %40, i64 0, i64 %42
  %44 = load i8, i8* %43, align 1
  %45 = sext i8 %44 to i32
  %46 = icmp ne i32 %45, 0
  br i1 %46, label %47, label %124

47:                                               ; preds = %37
  %48 = load i32, i32* %3, align 4
  %49 = sext i32 %48 to i64
  %50 = getelementptr inbounds [100 x [100 x i8]], [100 x [100 x i8]]* %7, i64 0, i64 %49
  %51 = load i32, i32* %4, align 4
  %52 = sext i32 %51 to i64
  %53 = getelementptr inbounds [100 x i8], [100 x i8]* %50, i64 0, i64 %52
  %54 = load i8, i8* %53, align 1
  %55 = sext i8 %54 to i32
  %56 = icmp sge i32 %55, 48
  br i1 %56, label %57, label %67

57:                                               ; preds = %47
  %58 = load i32, i32* %3, align 4
  %59 = sext i32 %58 to i64
  %60 = getelementptr inbounds [100 x [100 x i8]], [100 x [100 x i8]]* %7, i64 0, i64 %59
  %61 = load i32, i32* %4, align 4
  %62 = sext i32 %61 to i64
  %63 = getelementptr inbounds [100 x i8], [100 x i8]* %60, i64 0, i64 %62
  %64 = load i8, i8* %63, align 1
  %65 = sext i8 %64 to i32
  %66 = icmp sle i32 %65, 57
  br i1 %66, label %117, label %67

67:                                               ; preds = %57, %47
  %68 = load i32, i32* %3, align 4
  %69 = sext i32 %68 to i64
  %70 = getelementptr inbounds [100 x [100 x i8]], [100 x [100 x i8]]* %7, i64 0, i64 %69
  %71 = load i32, i32* %4, align 4
  %72 = sext i32 %71 to i64
  %73 = getelementptr inbounds [100 x i8], [100 x i8]* %70, i64 0, i64 %72
  %74 = load i8, i8* %73, align 1
  %75 = sext i8 %74 to i32
  %76 = icmp sge i32 %75, 65
  br i1 %76, label %77, label %87

77:                                               ; preds = %67
  %78 = load i32, i32* %3, align 4
  %79 = sext i32 %78 to i64
  %80 = getelementptr inbounds [100 x [100 x i8]], [100 x [100 x i8]]* %7, i64 0, i64 %79
  %81 = load i32, i32* %4, align 4
  %82 = sext i32 %81 to i64
  %83 = getelementptr inbounds [100 x i8], [100 x i8]* %80, i64 0, i64 %82
  %84 = load i8, i8* %83, align 1
  %85 = sext i8 %84 to i32
  %86 = icmp sle i32 %85, 90
  br i1 %86, label %117, label %87

87:                                               ; preds = %77, %67
  %88 = load i32, i32* %3, align 4
  %89 = sext i32 %88 to i64
  %90 = getelementptr inbounds [100 x [100 x i8]], [100 x [100 x i8]]* %7, i64 0, i64 %89
  %91 = load i32, i32* %4, align 4
  %92 = sext i32 %91 to i64
  %93 = getelementptr inbounds [100 x i8], [100 x i8]* %90, i64 0, i64 %92
  %94 = load i8, i8* %93, align 1
  %95 = sext i8 %94 to i32
  %96 = icmp sge i32 %95, 97
  br i1 %96, label %97, label %107

97:                                               ; preds = %87
  %98 = load i32, i32* %3, align 4
  %99 = sext i32 %98 to i64
  %100 = getelementptr inbounds [100 x [100 x i8]], [100 x [100 x i8]]* %7, i64 0, i64 %99
  %101 = load i32, i32* %4, align 4
  %102 = sext i32 %101 to i64
  %103 = getelementptr inbounds [100 x i8], [100 x i8]* %100, i64 0, i64 %102
  %104 = load i8, i8* %103, align 1
  %105 = sext i8 %104 to i32
  %106 = icmp sle i32 %105, 122
  br i1 %106, label %117, label %107

107:                                              ; preds = %97, %87
  %108 = load i32, i32* %3, align 4
  %109 = sext i32 %108 to i64
  %110 = getelementptr inbounds [100 x [100 x i8]], [100 x [100 x i8]]* %7, i64 0, i64 %109
  %111 = load i32, i32* %4, align 4
  %112 = sext i32 %111 to i64
  %113 = getelementptr inbounds [100 x i8], [100 x i8]* %110, i64 0, i64 %112
  %114 = load i8, i8* %113, align 1
  %115 = sext i8 %114 to i32
  %116 = icmp eq i32 %115, 95
  br i1 %116, label %117, label %120

117:                                              ; preds = %107, %97, %77, %57
  %118 = load i32, i32* %5, align 4
  %119 = add nsw i32 %118, 1
  store i32 %119, i32* %5, align 4
  br label %120

120:                                              ; preds = %117, %107
  br label %121

121:                                              ; preds = %120
  %122 = load i32, i32* %4, align 4
  %123 = add nsw i32 %122, 1
  store i32 %123, i32* %4, align 4
  br label %37

124:                                              ; preds = %37
  %125 = load i32, i32* %5, align 4
  %126 = load i32, i32* %3, align 4
  %127 = sext i32 %126 to i64
  %128 = getelementptr inbounds [100 x i32], [100 x i32]* %6, i64 0, i64 %127
  %129 = load i32, i32* %128, align 4
  %130 = icmp eq i32 %125, %129
  br i1 %130, label %131, label %173

131:                                              ; preds = %124
  %132 = load i32, i32* %3, align 4
  %133 = sext i32 %132 to i64
  %134 = getelementptr inbounds [100 x [100 x i8]], [100 x [100 x i8]]* %7, i64 0, i64 %133
  %135 = getelementptr inbounds [100 x i8], [100 x i8]* %134, i64 0, i64 0
  %136 = load i8, i8* %135, align 4
  %137 = sext i8 %136 to i32
  %138 = icmp sge i32 %137, 65
  br i1 %138, label %139, label %147

139:                                              ; preds = %131
  %140 = load i32, i32* %3, align 4
  %141 = sext i32 %140 to i64
  %142 = getelementptr inbounds [100 x [100 x i8]], [100 x [100 x i8]]* %7, i64 0, i64 %141
  %143 = getelementptr inbounds [100 x i8], [100 x i8]* %142, i64 0, i64 0
  %144 = load i8, i8* %143, align 4
  %145 = sext i8 %144 to i32
  %146 = icmp sle i32 %145, 90
  br i1 %146, label %171, label %147

147:                                              ; preds = %139, %131
  %148 = load i32, i32* %3, align 4
  %149 = sext i32 %148 to i64
  %150 = getelementptr inbounds [100 x [100 x i8]], [100 x [100 x i8]]* %7, i64 0, i64 %149
  %151 = getelementptr inbounds [100 x i8], [100 x i8]* %150, i64 0, i64 0
  %152 = load i8, i8* %151, align 4
  %153 = sext i8 %152 to i32
  %154 = icmp sge i32 %153, 97
  br i1 %154, label %155, label %163

155:                                              ; preds = %147
  %156 = load i32, i32* %3, align 4
  %157 = sext i32 %156 to i64
  %158 = getelementptr inbounds [100 x [100 x i8]], [100 x [100 x i8]]* %7, i64 0, i64 %157
  %159 = getelementptr inbounds [100 x i8], [100 x i8]* %158, i64 0, i64 0
  %160 = load i8, i8* %159, align 4
  %161 = sext i8 %160 to i32
  %162 = icmp sle i32 %161, 122
  br i1 %162, label %171, label %163

163:                                              ; preds = %155, %147
  %164 = load i32, i32* %3, align 4
  %165 = sext i32 %164 to i64
  %166 = getelementptr inbounds [100 x [100 x i8]], [100 x [100 x i8]]* %7, i64 0, i64 %165
  %167 = getelementptr inbounds [100 x i8], [100 x i8]* %166, i64 0, i64 0
  %168 = load i8, i8* %167, align 4
  %169 = sext i8 %168 to i32
  %170 = icmp eq i32 %169, 95
  br i1 %170, label %171, label %173

171:                                              ; preds = %163, %155, %139
  %172 = call i32 (i8*, ...) @printf(i8* getelementptr inbounds ([3 x i8], [3 x i8]* @.str.1, i64 0, i64 0))
  br label %175

173:                                              ; preds = %163, %124
  %174 = call i32 (i8*, ...) @printf(i8* getelementptr inbounds ([3 x i8], [3 x i8]* @.str.2, i64 0, i64 0))
  br label %175

175:                                              ; preds = %173, %171
  store i32 0, i32* %5, align 4
  br label %176

176:                                              ; preds = %175
  %177 = load i32, i32* %3, align 4
  %178 = add nsw i32 %177, 1
  store i32 %178, i32* %3, align 4
  br label %32

179:                                              ; preds = %32
  %180 = load i32, i32* %1, align 4
  ret i32 %180
}

declare dso_local i32 @__isoc99_scanf(i8*, ...) #1

declare dso_local i32 @gets(...) #1

; Function Attrs: nounwind readonly
declare dso_local i64 @strlen(i8*) #2

declare dso_local i32 @printf(i8*, ...) #1


!llvm.module.flags = !{!0}
!llvm.ident = !{!1}

!0 = !{i32 1, !"wchar_size", i32 4}
!1 = !{!"clang version 10.0.0-4ubuntu1 "}
