; ModuleID = 'source-C-CXX/57/53.c'
source_filename = "source-C-CXX/57/53.c"
target datalayout = "e-m:e-p270:32:32-p271:32:32-p272:64:64-i64:64-f80:128-n8:16:32:64-S128"
target triple = "x86_64-pc-linux-gnu"

@.str = private unnamed_addr constant [4 x i8] c"%d\0A\00", align 1
@str = private unnamed_addr constant [2 x i8] c"0\00", align 1
@str.3 = private unnamed_addr constant [2 x i8] c"1\00", align 1

; Function Attrs: nounwind sspstrong uwtable
define dso_local i32 @main() local_unnamed_addr #0 {
  %1 = alloca i32, align 4
  %2 = alloca [100 x i32], align 16
  %3 = alloca [100 x [100 x i8]], align 16
  %4 = bitcast i32* %1 to i8*
  call void @llvm.lifetime.start.p0i8(i64 4, i8* nonnull %4) #6
  %5 = bitcast [100 x i32]* %2 to i8*
  call void @llvm.lifetime.start.p0i8(i64 400, i8* nonnull %5) #6
  %6 = call i32 (i8*, ...) @__isoc99_scanf(i8* getelementptr inbounds ([4 x i8], [4 x i8]* @.str, i64 0, i64 0), i32* nonnull %1)
  %7 = getelementptr inbounds [100 x [100 x i8]], [100 x [100 x i8]]* %3, i64 0, i64 0, i64 0
  call void @llvm.lifetime.start.p0i8(i64 10000, i8* nonnull %7) #6
  %8 = load i32, i32* %1, align 4, !tbaa !5
  %9 = icmp sgt i32 %8, 0
  br i1 %9, label %12, label %71

10:                                               ; preds = %12
  %11 = icmp sgt i32 %20, 0
  br i1 %11, label %23, label %71

12:                                               ; preds = %0, %12
  %13 = phi i64 [ %19, %12 ], [ 0, %0 ]
  %14 = getelementptr inbounds [100 x [100 x i8]], [100 x [100 x i8]]* %3, i64 0, i64 %13, i64 0
  %15 = call i32 (i8*, ...) bitcast (i32 (...)* @gets to i32 (i8*, ...)*)(i8* nonnull %14) #6
  %16 = call i64 @strlen(i8* noundef nonnull %14) #7
  %17 = trunc i64 %16 to i32
  %18 = getelementptr inbounds [100 x i32], [100 x i32]* %2, i64 0, i64 %13
  store i32 %17, i32* %18, align 4, !tbaa !5
  %19 = add nuw nsw i64 %13, 1
  %20 = load i32, i32* %1, align 4, !tbaa !5
  %21 = sext i32 %20 to i64
  %22 = icmp slt i64 %19, %21
  br i1 %22, label %12, label %10, !llvm.loop !9

23:                                               ; preds = %10, %64
  %24 = phi i64 [ %67, %64 ], [ 0, %10 ]
  %25 = getelementptr inbounds [100 x [100 x i8]], [100 x [100 x i8]]* %3, i64 0, i64 %24, i64 0
  %26 = load i8, i8* %25, align 4, !tbaa !11
  %27 = icmp eq i8 %26, 0
  br i1 %27, label %50, label %28

28:                                               ; preds = %23, %44
  %29 = phi i64 [ %46, %44 ], [ 0, %23 ]
  %30 = phi i8 [ %48, %44 ], [ %26, %23 ]
  %31 = phi i32 [ %45, %44 ], [ 0, %23 ]
  %32 = add i8 %30, -48
  %33 = icmp ult i8 %32, 10
  %34 = add i8 %30, -65
  %35 = icmp ult i8 %34, 26
  %36 = or i1 %33, %35
  br i1 %36, label %42, label %37

37:                                               ; preds = %28
  %38 = add i8 %30, -97
  %39 = icmp ult i8 %38, 26
  %40 = icmp eq i8 %30, 95
  %41 = or i1 %40, %39
  br i1 %41, label %42, label %44

42:                                               ; preds = %37, %28
  %43 = add nsw i32 %31, 1
  br label %44

44:                                               ; preds = %37, %42
  %45 = phi i32 [ %43, %42 ], [ %31, %37 ]
  %46 = add nuw i64 %29, 1
  %47 = getelementptr inbounds [100 x [100 x i8]], [100 x [100 x i8]]* %3, i64 0, i64 %24, i64 %46
  %48 = load i8, i8* %47, align 1, !tbaa !11
  %49 = icmp eq i8 %48, 0
  br i1 %49, label %50, label %28, !llvm.loop !12

50:                                               ; preds = %44, %23
  %51 = phi i32 [ 0, %23 ], [ %45, %44 ]
  %52 = getelementptr inbounds [100 x i32], [100 x i32]* %2, i64 0, i64 %24
  %53 = load i32, i32* %52, align 4, !tbaa !5
  %54 = icmp eq i32 %51, %53
  br i1 %54, label %55, label %63

55:                                               ; preds = %50
  %56 = add i8 %26, -65
  %57 = icmp ult i8 %56, 26
  br i1 %57, label %64, label %58

58:                                               ; preds = %55
  %59 = add i8 %26, -97
  %60 = icmp ult i8 %59, 26
  %61 = icmp eq i8 %26, 95
  %62 = or i1 %61, %60
  br i1 %62, label %64, label %63

63:                                               ; preds = %58, %50
  br label %64

64:                                               ; preds = %55, %58, %63
  %65 = phi i8* [ getelementptr inbounds ([2 x i8], [2 x i8]* @str, i64 0, i64 0), %63 ], [ getelementptr inbounds ([2 x i8], [2 x i8]* @str.3, i64 0, i64 0), %58 ], [ getelementptr inbounds ([2 x i8], [2 x i8]* @str.3, i64 0, i64 0), %55 ]
  %66 = call i32 @puts(i8* nonnull dereferenceable(1) %65)
  %67 = add nuw nsw i64 %24, 1
  %68 = load i32, i32* %1, align 4, !tbaa !5
  %69 = sext i32 %68 to i64
  %70 = icmp slt i64 %67, %69
  br i1 %70, label %23, label %71, !llvm.loop !13

71:                                               ; preds = %64, %0, %10
  call void @llvm.lifetime.end.p0i8(i64 10000, i8* nonnull %7) #6
  call void @llvm.lifetime.end.p0i8(i64 400, i8* nonnull %5) #6
  call void @llvm.lifetime.end.p0i8(i64 4, i8* nonnull %4) #6
  ret i32 0
}

; Function Attrs: argmemonly mustprogress nofree nosync nounwind willreturn
declare void @llvm.lifetime.start.p0i8(i64 immarg, i8* nocapture) #1

; Function Attrs: nofree nounwind
declare noundef i32 @__isoc99_scanf(i8* nocapture noundef readonly, ...) local_unnamed_addr #2

declare i32 @gets(...) local_unnamed_addr #3

; Function Attrs: argmemonly mustprogress nofree nounwind readonly willreturn
declare i64 @strlen(i8* nocapture) local_unnamed_addr #4

; Function Attrs: argmemonly mustprogress nofree nosync nounwind willreturn
declare void @llvm.lifetime.end.p0i8(i64 immarg, i8* nocapture) #1

; Function Attrs: nofree nounwind
declare noundef i32 @puts(i8* nocapture noundef readonly) local_unnamed_addr #5


!llvm.module.flags = !{!0, !1, !2, !3}
!llvm.ident = !{!4}

!0 = !{i32 1, !"wchar_size", i32 4}
!1 = !{i32 7, !"PIC Level", i32 2}
!2 = !{i32 7, !"PIE Level", i32 2}
!3 = !{i32 7, !"uwtable", i32 1}
!4 = !{!"clang version 13.0.0"}
!5 = !{!6, !6, i64 0}
!6 = !{!"int", !7, i64 0}
!7 = !{!"omnipotent char", !8, i64 0}
!8 = !{!"Simple C/C++ TBAA"}
!9 = distinct !{!9, !10}
!10 = !{!"llvm.loop.mustprogress"}
!11 = !{!7, !7, i64 0}
!12 = distinct !{!12, !10}
!13 = distinct !{!13, !10}
